; Function Attrs: mustprogress uwtable
define noundef double @_ZNK14colvarbias_alb19restraint_potentialEdPK6colvarRK11colvarvalue(ptr nocapture nonnull readnone align 8 %0, double noundef %1, ptr noundef %2, ptr noundef nonnull align 8 dereferenceable(168) %3) local_unnamed_addr #4 align 2 personality ptr @__gxx_personality_v0 {
  %5 = alloca double, align 8
  %6 = alloca %class.colvarvalue, align 8
  %7 = alloca %class.colvarvalue, align 8
  store double %1, ptr %5, align 8
  %8 = getelementptr inbounds i8, ptr %2, i64 672
  call void @_ZmiRK11colvarvalueS1_(ptr dead_on_unwind nonnull writable sret(%class.colvarvalue) align 8 %7, ptr noundef nonnull align 8 dereferenceable(168) %8, ptr noundef nonnull align 8 dereferenceable(168) %3)
  invoke void @_ZmlRKdRK11colvarvalue(ptr dead_on_unwind nonnull writable sret(%class.colvarvalue) align 8 %6, ptr noundef nonnull align 8 dereferenceable(8) %5, ptr noundef nonnull align 8 dereferenceable(168) %7)
          to label %9 unwind label %42

9:                                                ; preds = %4
  %10 = invoke noundef double @_ZNK11colvarvaluecvdEv(ptr noundef nonnull align 8 dereferenceable(168) %6)
          to label %11 unwind label %44

11:                                               ; preds = %9
  %12 = getelementptr inbounds i8, ptr %6, i64 144
  %13 = load ptr, ptr %12, align 8
  %.not.i.i.i.i = icmp eq ptr %13, null
  br i1 %.not.i.i.i.i, label %_ZNSt6vectorIiSaIiEED2Ev.exit.i, label %14

14:                                               ; preds = %11
  call void @_ZdlPv(ptr noundef nonnull %13) #20
  br label %_ZNSt6vectorIiSaIiEED2Ev.exit.i

_ZNSt6vectorIiSaIiEED2Ev.exit.i:                  ; preds = %14, %11
  %15 = getelementptr inbounds i8, ptr %6, i64 120
  %16 = load ptr, ptr %15, align 8
  %.not.i.i.i1.i = icmp eq ptr %16, null
  br i1 %.not.i.i.i1.i, label %_ZNSt6vectorIiSaIiEED2Ev.exit2.i, label %17

17:                                               ; preds = %_ZNSt6vectorIiSaIiEED2Ev.exit.i
  call void @_ZdlPv(ptr noundef nonnull %16) #20
  br label %_ZNSt6vectorIiSaIiEED2Ev.exit2.i

_ZNSt6vectorIiSaIiEED2Ev.exit2.i:                 ; preds = %17, %_ZNSt6vectorIiSaIiEED2Ev.exit.i
  %18 = getelementptr inbounds i8, ptr %6, i64 96
  %19 = load ptr, ptr %18, align 8
  %.not.i.i.i3.i = icmp eq ptr %19, null
  br i1 %.not.i.i.i3.i, label %_ZNSt6vectorIN11colvarvalue4TypeESaIS1_EED2Ev.exit.i, label %20

20:                                               ; preds = %_ZNSt6vectorIiSaIiEED2Ev.exit2.i
  call void @_ZdlPv(ptr noundef nonnull %19) #20
  br label %_ZNSt6vectorIN11colvarvalue4TypeESaIS1_EED2Ev.exit.i

_ZNSt6vectorIN11colvarvalue4TypeESaIS1_EED2Ev.exit.i: ; preds = %20, %_ZNSt6vectorIiSaIiEED2Ev.exit2.i
  %21 = getelementptr inbounds i8, ptr %6, i64 72
  %22 = load ptr, ptr %21, align 8
  %23 = getelementptr inbounds i8, ptr %6, i64 80
  %24 = load ptr, ptr %23, align 8
  %.not.i.i.i4.i = icmp eq ptr %24, %22
  br i1 %.not.i.i.i4.i, label %_ZNSt6vectorIdSaIdEE5clearEv.exit.i.i, label %25

25:                                               ; preds = %_ZNSt6vectorIN11colvarvalue4TypeESaIS1_EED2Ev.exit.i
  store ptr %22, ptr %23, align 8
  br label %_ZNSt6vectorIdSaIdEE5clearEv.exit.i.i

_ZNSt6vectorIdSaIdEE5clearEv.exit.i.i:            ; preds = %25, %_ZNSt6vectorIN11colvarvalue4TypeESaIS1_EED2Ev.exit.i
  %.not.i.i.i.i.i = icmp eq ptr %22, null
  br i1 %.not.i.i.i.i.i, label %_ZN11colvarvalueD2Ev.exit, label %26

26:                                               ; preds = %_ZNSt6vectorIdSaIdEE5clearEv.exit.i.i
  call void @_ZdlPv(ptr noundef nonnull %22) #20
  br label %_ZN11colvarvalueD2Ev.exit

_ZN11colvarvalueD2Ev.exit:                        ; preds = %_ZNSt6vectorIdSaIdEE5clearEv.exit.i.i, %26
  %27 = getelementptr inbounds i8, ptr %7, i64 144
  %28 = load ptr, ptr %27, align 8
  %.not.i.i.i.i5 = icmp eq ptr %28, null
  br i1 %.not.i.i.i.i5, label %_ZNSt6vectorIiSaIiEED2Ev.exit.i6, label %29

29:                                               ; preds = %_ZN11colvarvalueD2Ev.exit
  call void @_ZdlPv(ptr noundef nonnull %28) #20
  br label %_ZNSt6vectorIiSaIiEED2Ev.exit.i6

_ZNSt6vectorIiSaIiEED2Ev.exit.i6:                 ; preds = %29, %_ZN11colvarvalueD2Ev.exit
  %30 = getelementptr inbounds i8, ptr %7, i64 120
  %31 = load ptr, ptr %30, align 8
  %.not.i.i.i1.i7 = icmp eq ptr %31, null
  br i1 %.not.i.i.i1.i7, label %_ZNSt6vectorIiSaIiEED2Ev.exit2.i8, label %32

32:                                               ; preds = %_ZNSt6vectorIiSaIiEED2Ev.exit.i6
  call void @_ZdlPv(ptr noundef nonnull %31) #20
  br label %_ZNSt6vectorIiSaIiEED2Ev.exit2.i8

_ZNSt6vectorIiSaIiEED2Ev.exit2.i8:                ; preds = %32, %_ZNSt6vectorIiSaIiEED2Ev.exit.i6
  %33 = getelementptr inbounds i8, ptr %7, i64 96
  %34 = load ptr, ptr %33, align 8
  %.not.i.i.i3.i9 = icmp eq ptr %34, null
  br i1 %.not.i.i.i3.i9, label %_ZNSt6vectorIN11colvarvalue4TypeESaIS1_EED2Ev.exit.i10, label %35

35:                                               ; preds = %_ZNSt6vectorIiSaIiEED2Ev.exit2.i8
  call void @_ZdlPv(ptr noundef nonnull %34) #20
  br label %_ZNSt6vectorIN11colvarvalue4TypeESaIS1_EED2Ev.exit.i10

_ZNSt6vectorIN11colvarvalue4TypeESaIS1_EED2Ev.exit.i10: ; preds = %35, %_ZNSt6vectorIiSaIiEED2Ev.exit2.i8
  %36 = getelementptr inbounds i8, ptr %7, i64 72
  %37 = load ptr, ptr %36, align 8
  %38 = getelementptr inbounds i8, ptr %7, i64 80
  %39 = load ptr, ptr %38, align 8
  %.not.i.i.i4.i11 = icmp eq ptr %39, %37
  br i1 %.not.i.i.i4.i11, label %_ZNSt6vectorIdSaIdEE5clearEv.exit.i.i12, label %40

40:                                               ; preds = %_ZNSt6vectorIN11colvarvalue4TypeESaIS1_EED2Ev.exit.i10
  store ptr %37, ptr %38, align 8
  br label %_ZNSt6vectorIdSaIdEE5clearEv.exit.i.i12

_ZNSt6vectorIdSaIdEE5clearEv.exit.i.i12:          ; preds = %40, %_ZNSt6vectorIN11colvarvalue4TypeESaIS1_EED2Ev.exit.i10
  %.not.i.i.i.i.i13 = icmp eq ptr %37, null
  br i1 %.not.i.i.i.i.i13, label %_ZN11colvarvalueD2Ev.exit14, label %41

41:                                               ; preds = %_ZNSt6vectorIdSaIdEE5clearEv.exit.i.i12
  call void @_ZdlPv(ptr noundef nonnull %37) #20
  br label %_ZN11colvarvalueD2Ev.exit14

_ZN11colvarvalueD2Ev.exit14:                      ; preds = %_ZNSt6vectorIdSaIdEE5clearEv.exit.i.i12, %41
  ret double %10

42:                                               ; preds = %4
  %43 = landingpad { ptr, i32 }
          cleanup
  br label %46

44:                                               ; preds = %9
  %45 = landingpad { ptr, i32 }
          cleanup
  call void @_ZN11colvarvalueD2Ev(ptr noundef nonnull align 8 dereferenceable(168) %6) #21
  br label %46

46:                                               ; preds = %44, %42
  %.pn = phi { ptr, i32 } [ %45, %44 ], [ %43, %42 ]
  call void @_ZN11colvarvalueD2Ev(ptr noundef nonnull align 8 dereferenceable(168) %7) #21
  resume { ptr, i32 } %.pn
}